target datalayout = "e-m:e-p270:32:32-p271:32:32-p272:64:64-i64:64-i128:128-f80:128-n8:16:32:64-S128"
target triple = "x86_64-pc-linux-gnu"

%"struct.std::array.2" = type { [4 x i64] }
%"class.arrow::GenericBasicDecimal.1" = type { %"struct.std::array.2" }
%"struct.arrow::bit_util::little_endian::detail::Writer" = type { ptr }

@constinit = private constant [4 x i64] zeroinitializer, align 8

; Function Attrs: mustprogress nounwind uwtable
define linkonce_odr noundef nonnull align 8 dereferenceable(8) ptr @_ZNSt14__array_traitsImLm4EE6_S_refERA4_Kmm(ptr noundef nonnull align 8 dereferenceable(32) %0, i64 noundef %1) #0 comdat align 2 {
  %3 = alloca ptr, align 8
  %4 = alloca i64, align 8
  store ptr %0, ptr %3, align 8, !tbaa !239
  store i64 %1, ptr %4, align 8, !tbaa !8
  %5 = load ptr, ptr %3, align 8, !tbaa !239
  %6 = load i64, ptr %4, align 8, !tbaa !8
  %7 = getelementptr inbounds nuw [4 x i64], ptr %5, i64 0, i64 %6
  ret ptr %7
}

; Function Attrs: mustprogress nounwind uwtable
define linkonce_odr noundef nonnull align 8 dereferenceable(8) ptr @_ZNSt5arrayImLm4EEixEm(ptr noundef nonnull align 8 dereferenceable(32) %0, i64 noundef %1) #0 comdat align 2 {
  %3 = alloca ptr, align 8
  %4 = alloca i64, align 8
  store ptr %0, ptr %3, align 8, !tbaa !20
  store i64 %1, ptr %4, align 8, !tbaa !8
  %5 = load ptr, ptr %3, align 8
  %6 = getelementptr inbounds nuw %"struct.std::array.2", ptr %5, i32 0, i32 0
  %7 = load i64, ptr %4, align 8, !tbaa !8
  %8 = call noundef nonnull align 8 dereferenceable(8) ptr @_ZNSt14__array_traitsImLm4EE6_S_refERA4_Kmm(ptr noundef nonnull align 8 dereferenceable(32) %6, i64 noundef %7) #12
  ret ptr %8
}

; Function Attrs: mustprogress nounwind uwtable
define linkonce_odr void @_ZN5arrow8bit_util13little_endian6detail6WriterImLm4EEC2EPSt5arrayImLm4EE(ptr noundef nonnull align 8 dereferenceable(8) %0, ptr noundef %1) unnamed_addr #0 comdat align 2 {
  %3 = alloca ptr, align 8
  %4 = alloca ptr, align 8
  store ptr %0, ptr %3, align 8, !tbaa !242
  store ptr %1, ptr %4, align 8, !tbaa !20
  %5 = load ptr, ptr %3, align 8
  %6 = getelementptr inbounds nuw %"struct.arrow::bit_util::little_endian::detail::Writer", ptr %5, i32 0, i32 0
  %7 = load ptr, ptr %4, align 8, !tbaa !20
  store ptr %7, ptr %6, align 8, !tbaa !244
  ret void
}

; Function Attrs: mustprogress nounwind uwtable
define linkonce_odr noundef nonnull align 8 dereferenceable(8) ptr @_ZN5arrow8bit_util13little_endian6detail6WriterImLm4EEixEm(ptr noundef nonnull align 8 dereferenceable(8) %0, i64 noundef %1) #0 comdat align 2 {
  %3 = alloca ptr, align 8
  %4 = alloca i64, align 8
  store ptr %0, ptr %3, align 8, !tbaa !242
  store i64 %1, ptr %4, align 8, !tbaa !8
  %5 = load ptr, ptr %3, align 8
  %6 = getelementptr inbounds nuw %"struct.arrow::bit_util::little_endian::detail::Writer", ptr %5, i32 0, i32 0
  %7 = load ptr, ptr %6, align 8, !tbaa !244
  %8 = load i64, ptr %4, align 8, !tbaa !8
  %9 = call noundef nonnull align 8 dereferenceable(8) ptr @_ZNSt5arrayImLm4EEixEm(ptr noundef nonnull align 8 dereferenceable(32) %7, i64 noundef %8) #12
  ret ptr %9
}

; Function Attrs: inlinehint mustprogress uwtable
define internal ptr @_ZN5arrow8bit_util13little_endianL4MakeImLm4EEENS1_6detail6WriterIT_XT0_EEEPSt5arrayIS5_XT0_EE(ptr noundef %0) #8 {
  %2 = alloca %"struct.arrow::bit_util::little_endian::detail::Writer", align 8
  %3 = alloca ptr, align 8
  store ptr %0, ptr %3, align 8, !tbaa !20
  %4 = load ptr, ptr %3, align 8, !tbaa !20
  call void @_ZN5arrow8bit_util13little_endian6detail6WriterImLm4EEC2EPSt5arrayImLm4EE(ptr noundef nonnull align 8 dereferenceable(8) %2, ptr noundef %4)
  %5 = getelementptr inbounds nuw %"struct.arrow::bit_util::little_endian::detail::Writer", ptr %2, i32 0, i32 0
  %6 = load ptr, ptr %5, align 8
  ret ptr %6
}

; Function Attrs: mustprogress uwtable
define noundef nonnull align 8 dereferenceable(32) ptr @_ZN5arrow15BasicDecimal256lSEj(ptr noundef nonnull align 8 dereferenceable(32) %0, i32 noundef %1) #6 align 2 {
  %3 = alloca ptr, align 8
  %4 = alloca ptr, align 8
  %5 = alloca i32, align 4
  %6 = alloca i32, align 4
  %7 = alloca %"struct.std::array.2", align 8
  %8 = alloca i32, align 4
  %9 = alloca i32, align 4
  %10 = alloca %"struct.arrow::bit_util::little_endian::detail::Writer", align 8
  %11 = alloca i32, align 4
  %12 = alloca i32, align 4
  store ptr %0, ptr %4, align 8, !tbaa !237
  store i32 %1, ptr %5, align 4, !tbaa !30
  %13 = load ptr, ptr %4, align 8
  %14 = load i32, ptr %5, align 4, !tbaa !30
  %15 = icmp eq i32 %14, 0
  br i1 %15, label %16, label %17

16:                                               ; preds = %2
  store ptr %13, ptr %3, align 8
  br label %97

17:                                               ; preds = %2
  call void @llvm.lifetime.start.p0(i64 4, ptr %6) #12
  %18 = load i32, ptr %5, align 4, !tbaa !30
  %19 = udiv i32 %18, 64
  store i32 %19, ptr %6, align 4, !tbaa !30
  %20 = load i32, ptr %6, align 4, !tbaa !30
  %21 = icmp sge i32 %20, 4
  br i1 %21, label %22, label %25

22:                                               ; preds = %17
  call void @llvm.lifetime.start.p0(i64 32, ptr %7) #12
  call void @llvm.memset.p0.i64(ptr align 8 %7, i8 0, i64 32, i1 false)
  %23 = getelementptr inbounds nuw %"struct.std::array.2", ptr %7, i32 0, i32 0
  call void @llvm.memcpy.p0.p0.i64(ptr align 8 %23, ptr align 8 @constinit, i64 32, i1 false), !tbaa.struct !22
  %24 = getelementptr inbounds nuw %"class.arrow::GenericBasicDecimal.1", ptr %13, i32 0, i32 0
  call void @llvm.memcpy.p0.p0.i64(ptr align 8 %24, ptr align 8 %7, i64 32, i1 false), !tbaa.struct !22
  call void @llvm.lifetime.end.p0(i64 32, ptr %7) #12
  store ptr %13, ptr %3, align 8
  store i32 1, ptr %8, align 4
  br label %96

25:                                               ; preds = %17
  call void @llvm.lifetime.start.p0(i64 4, ptr %9) #12
  %26 = load i32, ptr %5, align 4, !tbaa !30
  %27 = urem i32 %26, 64
  store i32 %27, ptr %9, align 4, !tbaa !30
  call void @llvm.lifetime.start.p0(i64 8, ptr %10) #12
  %28 = getelementptr inbounds nuw %"class.arrow::GenericBasicDecimal.1", ptr %13, i32 0, i32 0
  %29 = call ptr @_ZN5arrow8bit_util13little_endianL4MakeImLm4EEENS1_6detail6WriterIT_XT0_EEEPSt5arrayIS5_XT0_EE(ptr noundef %28)
  %30 = getelementptr inbounds nuw %"struct.arrow::bit_util::little_endian::detail::Writer", ptr %10, i32 0, i32 0
  store ptr %29, ptr %30, align 8
  call void @llvm.lifetime.start.p0(i64 4, ptr %11) #12
  store i32 3, ptr %11, align 4, !tbaa !30
  br label %31

31:                                               ; preds = %78, %25
  %32 = load i32, ptr %11, align 4, !tbaa !30
  %33 = load i32, ptr %6, align 4, !tbaa !30
  %34 = icmp sge i32 %32, %33
  br i1 %34, label %36, label %35

35:                                               ; preds = %31
  store i32 2, ptr %8, align 4
  call void @llvm.lifetime.end.p0(i64 4, ptr %11) #12
  br label %81

36:                                               ; preds = %31
  %37 = load i32, ptr %11, align 4, !tbaa !30
  %38 = load i32, ptr %6, align 4, !tbaa !30
  %39 = sub nsw i32 %37, %38
  %40 = sext i32 %39 to i64
  %41 = call noundef nonnull align 8 dereferenceable(8) ptr @_ZN5arrow8bit_util13little_endian6detail6WriterImLm4EEixEm(ptr noundef nonnull align 8 dereferenceable(8) %10, i64 noundef %40)
  %42 = load i64, ptr %41, align 8, !tbaa !8
  %43 = load i32, ptr %11, align 4, !tbaa !30
  %44 = sext i32 %43 to i64
  %45 = call noundef nonnull align 8 dereferenceable(8) ptr @_ZN5arrow8bit_util13little_endian6detail6WriterImLm4EEixEm(ptr noundef nonnull align 8 dereferenceable(8) %10, i64 noundef %44)
  store i64 %42, ptr %45, align 8, !tbaa !8
  %46 = load i32, ptr %9, align 4, !tbaa !30
  %47 = load i32, ptr %11, align 4, !tbaa !30
  %48 = sext i32 %47 to i64
  %49 = call noundef nonnull align 8 dereferenceable(8) ptr @_ZN5arrow8bit_util13little_endian6detail6WriterImLm4EEixEm(ptr noundef nonnull align 8 dereferenceable(8) %10, i64 noundef %48)
  %50 = load i64, ptr %49, align 8, !tbaa !8
  %51 = zext i32 %46 to i64
  %52 = shl i64 %50, %51
  store i64 %52, ptr %49, align 8, !tbaa !8
  %53 = load i32, ptr %9, align 4, !tbaa !30
  %54 = icmp ne i32 %53, 0
  br i1 %54, label %55, label %77

55:                                               ; preds = %36
  %56 = load i32, ptr %11, align 4, !tbaa !30
  %57 = load i32, ptr %6, align 4, !tbaa !30
  %58 = add nsw i32 %57, 1
  %59 = icmp sge i32 %56, %58
  br i1 %59, label %60, label %77

60:                                               ; preds = %55
  %61 = load i32, ptr %11, align 4, !tbaa !30
  %62 = load i32, ptr %6, align 4, !tbaa !30
  %63 = add nsw i32 %62, 1
  %64 = sub nsw i32 %61, %63
  %65 = sext i32 %64 to i64
  %66 = call noundef nonnull align 8 dereferenceable(8) ptr @_ZN5arrow8bit_util13little_endian6detail6WriterImLm4EEixEm(ptr noundef nonnull align 8 dereferenceable(8) %10, i64 noundef %65)
  %67 = load i64, ptr %66, align 8, !tbaa !8
  %68 = load i32, ptr %9, align 4, !tbaa !30
  %69 = sub i32 64, %68
  %70 = zext i32 %69 to i64
  %71 = lshr i64 %67, %70
  %72 = load i32, ptr %11, align 4, !tbaa !30
  %73 = sext i32 %72 to i64
  %74 = call noundef nonnull align 8 dereferenceable(8) ptr @_ZN5arrow8bit_util13little_endian6detail6WriterImLm4EEixEm(ptr noundef nonnull align 8 dereferenceable(8) %10, i64 noundef %73)
  %75 = load i64, ptr %74, align 8, !tbaa !8
  %76 = or i64 %75, %71
  store i64 %76, ptr %74, align 8, !tbaa !8
  br label %77

77:                                               ; preds = %60, %55, %36
  br label %78

78:                                               ; preds = %77
  %79 = load i32, ptr %11, align 4, !tbaa !30
  %80 = add nsw i32 %79, -1
  store i32 %80, ptr %11, align 4, !tbaa !30
  br label %31, !llvm.loop !251

81:                                               ; preds = %35
  call void @llvm.lifetime.start.p0(i64 4, ptr %12) #12
  %82 = load i32, ptr %6, align 4, !tbaa !30
  %83 = sub nsw i32 %82, 1
  store i32 %83, ptr %12, align 4, !tbaa !30
  br label %84

84:                                               ; preds = %92, %81
  %85 = load i32, ptr %12, align 4, !tbaa !30
  %86 = icmp sge i32 %85, 0
  br i1 %86, label %88, label %87

87:                                               ; preds = %84
  store i32 5, ptr %8, align 4
  call void @llvm.lifetime.end.p0(i64 4, ptr %12) #12
  br label %95

88:                                               ; preds = %84
  %89 = load i32, ptr %12, align 4, !tbaa !30
  %90 = sext i32 %89 to i64
  %91 = call noundef nonnull align 8 dereferenceable(8) ptr @_ZN5arrow8bit_util13little_endian6detail6WriterImLm4EEixEm(ptr noundef nonnull align 8 dereferenceable(8) %10, i64 noundef %90)
  store i64 0, ptr %91, align 8, !tbaa !8
  br label %92

92:                                               ; preds = %88
  %93 = load i32, ptr %12, align 4, !tbaa !30
  %94 = add nsw i32 %93, -1
  store i32 %94, ptr %12, align 4, !tbaa !30
  br label %84, !llvm.loop !252

95:                                               ; preds = %87
  store ptr %13, ptr %3, align 8
  store i32 1, ptr %8, align 4
  call void @llvm.lifetime.end.p0(i64 8, ptr %10) #12
  call void @llvm.lifetime.end.p0(i64 4, ptr %9) #12
  br label %96

96:                                               ; preds = %95, %22
  call void @llvm.lifetime.end.p0(i64 4, ptr %6) #12
  br label %97

97:                                               ; preds = %96, %16
  %98 = load ptr, ptr %3, align 8
  ret ptr %98
}